; Function Attrs: mustprogress nofree norecurse nosync nounwind sspstrong willreturn memory(read, inaccessiblemem: none) uwtable
define internal i64 @strcasehash(i64 noundef %0) #19 {
  %2 = inttoptr i64 %0 to ptr
  %3 = load i8, ptr %2, align 1, !tbaa !42
  %.not11 = icmp eq i8 %3, 0
  br i1 %.not11, label %._crit_edge, label %.lr.ph

.lr.ph:                                           ; preds = %1, %.lr.ph
  %4 = phi i8 [ %13, %.lr.ph ], [ %3, %1 ]
  %.0813 = phi i64 [ %12, %.lr.ph ], [ 2166136261, %1 ]
  %.0912 = phi ptr [ %5, %.lr.ph ], [ %2, %1 ]
  %5 = getelementptr i8, ptr %.0912, i64 1
  %6 = zext i8 %4 to i32
  %7 = add i8 %4, -65
  %8 = icmp ult i8 %7, 26
  %9 = or disjoint i32 %6, 32
  %spec.select = select i1 %8, i32 %9, i32 %6
  %10 = zext nneg i32 %spec.select to i64
  %11 = xor i64 %.0813, %10
  %12 = mul i64 %11, 16777619
  %13 = load i8, ptr %5, align 1, !tbaa !42
  %.not = icmp eq i8 %13, 0
  br i1 %.not, label %._crit_edge, label %.lr.ph, !llvm.loop !70

._crit_edge:                                      ; preds = %.lr.ph, %1
  %.08.lcssa = phi i64 [ 2166136261, %1 ], [ %12, %.lr.ph ]
  ret i64 %.08.lcssa
}